; Function Attrs: nounwind uwtable
define internal noundef i32 @str_len(ptr noundef %0) #0 {
  %2 = alloca i64, align 8
  call void @llvm.lifetime.start.p0(i64 8, ptr nonnull %2) #12
  %3 = call ptr @luaL_checklstring(ptr noundef %0, i32 noundef 1, ptr noundef nonnull %2) #12
  %4 = load i64, ptr %2, align 8, !tbaa !4
  call void @lua_pushinteger(ptr noundef %0, i64 noundef %4) #12
  call void @llvm.lifetime.end.p0(i64 8, ptr nonnull %2) #12
  ret i32 1
}